target datalayout = "e-m:e-p270:32:32-p271:32:32-p272:64:64-i64:64-i128:128-f80:128-n8:16:32:64-S128"
target triple = "x86_64-pc-linux-gnu"

%"struct.mitsuba::Color" = type { %"struct.drjit::StaticArrayImpl.58" }
%"struct.drjit::StaticArrayImpl.58" = type { %"struct.drjit::StaticArrayImpl.59" }
%"struct.drjit::StaticArrayImpl.59" = type { <4 x float> }
%"struct.mitsuba::Vector" = type { %"struct.drjit::StaticArrayImpl" }
%"struct.drjit::StaticArrayImpl" = type { %"struct.drjit::StaticArrayImpl.19" }
%"struct.drjit::StaticArrayImpl.19" = type { <4 x float> }
%"struct.drjit::Array.62" = type { %"struct.drjit::StaticArrayImpl.63" }
%"struct.drjit::StaticArrayImpl.63" = type { %"struct.drjit::StaticArrayImpl.64" }
%"struct.drjit::StaticArrayImpl.64" = type { <4 x float> }

@_ZN7mitsuba4HairIfN5drjit6MatrixINS_8SpectrumIfLm4EEELm4EEEE17EUMELANIN_SIGMA_AE = weak_odr global %"struct.mitsuba::Color" zeroinitializer, comdat, align 16
@_ZN7mitsuba4HairIfN5drjit6MatrixINS_8SpectrumIfLm4EEELm4EEEE21EUMELANIN_SRGB_COEFFSE = weak_odr global %"struct.mitsuba::Vector" zeroinitializer, comdat, align 16
@_ZGVN7mitsuba4HairIfN5drjit6MatrixINS_8SpectrumIfLm4EEELm4EEEE21EUMELANIN_SRGB_COEFFSE = weak_odr global i64 0, comdat($_ZN7mitsuba4HairIfN5drjit6MatrixINS_8SpectrumIfLm4EEELm4EEEE21EUMELANIN_SRGB_COEFFSE), align 8

; Function Attrs: mustprogress uwtable
define linkonce_odr hidden void @_ZN5drjit15StaticArrayImplIfLm3ELb0EN7mitsuba6VectorIfLm3EEEiECI2NS0_IfLm4ELb0ES3_iEEIfNS_5ArrayIfLm3EEETnNSt3__19enable_ifIXsr6detailE9is_same_vIT_fEEiE4typeELi0EEERKNS_15StaticArrayBaseIS9_Lm4ELb0ET0_EE(ptr noundef nonnull align 16 dereferenceable(16) %0, ptr noundef nonnull align 1 dereferenceable(1) %1) unnamed_addr #0 comdat align 2 {
  %3 = alloca ptr, align 8
  %4 = alloca ptr, align 8
  %5 = alloca ptr, align 8
  %6 = alloca ptr, align 8
  %7 = alloca ptr, align 8
  store ptr %0, ptr %6, align 8
  store ptr %1, ptr %7, align 8
  %8 = load ptr, ptr %6, align 8
  %9 = load ptr, ptr %7, align 8
  store ptr %8, ptr %4, align 8
  store ptr %9, ptr %5, align 8
  %10 = load ptr, ptr %4, align 8
  %11 = load ptr, ptr %5, align 8
  store ptr %11, ptr %3, align 8
  %12 = load ptr, ptr %3, align 8
  %13 = load <4 x float>, ptr %12, align 16
  store <4 x float> %13, ptr %10, align 16
  ret void
}

; Function Attrs: mustprogress uwtable
define linkonce_odr hidden void @_ZN7mitsuba6VectorIfLm3EECI2N5drjit15StaticArrayImplIfLm4ELb0ES1_iEEIfNS2_5ArrayIfLm3EEETnNSt3__19enable_ifIXsr6detailE9is_same_vIT_fEEiE4typeELi0EEERKNS2_15StaticArrayBaseIS8_Lm4ELb0ET0_EE(ptr noundef nonnull align 16 dereferenceable(16) %0, ptr noundef nonnull align 1 dereferenceable(1) %1) unnamed_addr #0 comdat align 2 {
  %3 = alloca ptr, align 8
  %4 = alloca ptr, align 8
  store ptr %0, ptr %3, align 8
  store ptr %1, ptr %4, align 8
  %5 = load ptr, ptr %3, align 8
  %6 = load ptr, ptr %4, align 8
  call void @_ZN5drjit15StaticArrayImplIfLm3ELb0EN7mitsuba6VectorIfLm3EEEiECI2NS0_IfLm4ELb0ES3_iEEIfNS_5ArrayIfLm3EEETnNSt3__19enable_ifIXsr6detailE9is_same_vIT_fEEiE4typeELi0EEERKNS_15StaticArrayBaseIS9_Lm4ELb0ET0_EE(ptr noundef nonnull align 16 dereferenceable(16) %5, ptr noundef nonnull align 1 dereferenceable(1) %6)
  ret void
}

; Function Attrs: uwtable
define internal void @__cxx_global_var_init.22() #11 section ".text.startup" comdat($_ZN7mitsuba4HairIfN5drjit6MatrixINS_8SpectrumIfLm4EEELm4EEEE21EUMELANIN_SRGB_COEFFSE) {
  %1 = alloca %"struct.drjit::Array.62", align 16
  %2 = load i8, ptr @_ZGVN7mitsuba4HairIfN5drjit6MatrixINS_8SpectrumIfLm4EEELm4EEEE21EUMELANIN_SRGB_COEFFSE, align 8
  %3 = icmp eq i8 %2, 0
  br i1 %3, label %4, label %9

4:                                                ; preds = %0
  store i8 1, ptr @_ZGVN7mitsuba4HairIfN5drjit6MatrixINS_8SpectrumIfLm4EEELm4EEEE21EUMELANIN_SRGB_COEFFSE, align 8
  %5 = call contract <4 x float> @_ZN7mitsuba16srgb_model_fetchERKNS_5ColorIfLm3EEE(ptr noundef nonnull align 16 dereferenceable(16) @_ZN7mitsuba4HairIfN5drjit6MatrixINS_8SpectrumIfLm4EEELm4EEEE17EUMELANIN_SIGMA_AE)
  %6 = getelementptr inbounds %"struct.drjit::Array.62", ptr %1, i32 0, i32 0
  %7 = getelementptr inbounds %"struct.drjit::StaticArrayImpl.63", ptr %6, i32 0, i32 0
  %8 = getelementptr inbounds %"struct.drjit::StaticArrayImpl.64", ptr %7, i32 0, i32 0
  store <4 x float> %5, ptr %8, align 16
  call void @_ZN7mitsuba6VectorIfLm3EECI2N5drjit15StaticArrayImplIfLm4ELb0ES1_iEEIfNS2_5ArrayIfLm3EEETnNSt3__19enable_ifIXsr6detailE9is_same_vIT_fEEiE4typeELi0EEERKNS2_15StaticArrayBaseIS8_Lm4ELb0ET0_EE(ptr noundef nonnull align 16 dereferenceable(16) @_ZN7mitsuba4HairIfN5drjit6MatrixINS_8SpectrumIfLm4EEELm4EEEE21EUMELANIN_SRGB_COEFFSE, ptr noundef nonnull align 1 dereferenceable(1) %1)
  br label %9

9:                                                ; preds = %4, %0
  ret void
}