; Function Attrs: uwtable
define internal void @__cxx_global_var_init.22() #11 section ".text.startup" comdat($_ZN7mitsuba4HairIfN5drjit6MatrixINS_8SpectrumIfLm4EEELm4EEEE21EUMELANIN_SRGB_COEFFSE) {
  %1 = load i8, ptr @_ZGVN7mitsuba4HairIfN5drjit6MatrixINS_8SpectrumIfLm4EEELm4EEEE21EUMELANIN_SRGB_COEFFSE, align 8
  %2 = icmp eq i8 %1, 0
  br i1 %2, label %3, label %5

3:                                                ; preds = %0
  store i8 1, ptr @_ZGVN7mitsuba4HairIfN5drjit6MatrixINS_8SpectrumIfLm4EEELm4EEEE21EUMELANIN_SRGB_COEFFSE, align 8
  %4 = tail call contract <4 x float> @_ZN7mitsuba16srgb_model_fetchERKNS_5ColorIfLm3EEE(ptr noundef nonnull align 16 dereferenceable(16) @_ZN7mitsuba4HairIfN5drjit6MatrixINS_8SpectrumIfLm4EEELm4EEEE17EUMELANIN_SIGMA_AE)
  store <4 x float> %4, ptr @_ZN7mitsuba4HairIfN5drjit6MatrixINS_8SpectrumIfLm4EEELm4EEEE21EUMELANIN_SRGB_COEFFSE, align 16
  br label %5

5:                                                ; preds = %3, %0
  ret void
}